; Function Attrs: null_pointer_is_valid sspstrong uwtable
define internal range(i32 -268435456, 268435456) i32 @dissect_h450_H4501SupplementaryService_PDU(ptr noundef %0, ptr noundef %1, ptr noundef %2, ptr readnone captures(none) %3) #0 {
  %5 = alloca %struct._asn1_ctx_t, align 8
  call void @llvm.lifetime.start.p0(i64 208, ptr nonnull %5) #4
  call void @asn1_ctx_init(ptr noundef nonnull %5, i32 noundef 1, i1 noundef zeroext true, ptr noundef %1)
  %6 = load i32, ptr @hf_h450_h450_H4501SupplementaryService_PDU, align 4
  %7 = load i32, ptr @proto_h450, align 4
  %8 = call ptr @proto_tree_add_item(ptr noundef %2, i32 noundef %7, ptr noundef %0, i32 noundef 0, i32 noundef -1, i32 noundef 0)
  %.not.i.i = icmp eq ptr %8, null
  br i1 %.not.i.i, label %dissect_h450_H4501SupplementaryService.exit, label %9

9:                                                ; preds = %4
  %10 = getelementptr inbounds nuw i8, ptr %8, i64 40
  %11 = load ptr, ptr %10, align 8
  %.not5.i.i = icmp eq ptr %11, null
  br i1 %.not5.i.i, label %dissect_h450_H4501SupplementaryService.exit, label %12

12:                                               ; preds = %9
  %13 = getelementptr inbounds nuw i8, ptr %11, i64 28
  %14 = load i32, ptr %13, align 4
  %15 = or i32 %14, 1
  store i32 %15, ptr %13, align 4
  br label %dissect_h450_H4501SupplementaryService.exit

dissect_h450_H4501SupplementaryService.exit:      ; preds = %4, %9, %12
  %16 = load i32, ptr @ett_h450_H4501SupplementaryService, align 4
  %17 = call i32 @dissect_per_sequence(ptr noundef %0, i32 noundef 0, ptr noundef nonnull %5, ptr noundef %2, i32 noundef %6, i32 noundef %16, ptr noundef nonnull @h450_H4501SupplementaryService_sequence)
  %18 = add i32 %17, 7
  %19 = ashr i32 %18, 3
  call void @llvm.lifetime.end.p0(i64 208, ptr nonnull %5) #4
  ret i32 %19
}